; Function Attrs: mustprogress uwtable
define void @_ZN8QuantLib15AssetSwapHelper6updateEv(ptr noundef nonnull align 8 dereferenceable(344) %this) unnamed_addr #8 align 2 personality ptr @__gxx_personality_v0 {
entry:
  %ref.tmp.i = alloca %"class.QuantLib::Date", align 8
  %evaluationDate_ = getelementptr inbounds nuw i8, ptr %this, i64 304
  %0 = load atomic i8, ptr @_ZGVZN8QuantLib9SingletonINS_8SettingsESt17integral_constantIbLb0EEE8instanceEvE8instance acquire, align 8
  %guard.uninitialized.i = icmp eq i8 %0, 0
  br i1 %guard.uninitialized.i, label %init.check.i, label %_ZN8QuantLib9SingletonINS_8SettingsESt17integral_constantIbLb0EEE8instanceEv.exit, !prof !7

init.check.i:                                     ; preds = %entry
  %1 = tail call i32 @__cxa_guard_acquire(ptr nonnull @_ZGVZN8QuantLib9SingletonINS_8SettingsESt17integral_constantIbLb0EEE8instanceEvE8instance) #27
  %tobool.not.i = icmp eq i32 %1, 0
  br i1 %tobool.not.i, label %_ZN8QuantLib9SingletonINS_8SettingsESt17integral_constantIbLb0EEE8instanceEv.exit, label %init.i

init.i:                                           ; preds = %init.check.i
  invoke void @_ZN8QuantLib8SettingsC1Ev(ptr noundef nonnull align 8 dereferenceable(28) @_ZZN8QuantLib9SingletonINS_8SettingsESt17integral_constantIbLb0EEE8instanceEvE8instance)
          to label %invoke.cont.i unwind label %lpad.i

invoke.cont.i:                                    ; preds = %init.i
  %2 = tail call i32 @__cxa_atexit(ptr nonnull @_ZN8QuantLib8SettingsD2Ev, ptr nonnull @_ZZN8QuantLib9SingletonINS_8SettingsESt17integral_constantIbLb0EEE8instanceEvE8instance, ptr nonnull @__dso_handle) #27
  tail call void @__cxa_guard_release(ptr nonnull @_ZGVZN8QuantLib9SingletonINS_8SettingsESt17integral_constantIbLb0EEE8instanceEvE8instance) #27
  br label %_ZN8QuantLib9SingletonINS_8SettingsESt17integral_constantIbLb0EEE8instanceEv.exit

lpad.i:                                           ; preds = %init.i
  %3 = landingpad { ptr, i32 }
          cleanup
  tail call void @__cxa_guard_abort(ptr nonnull @_ZGVZN8QuantLib9SingletonINS_8SettingsESt17integral_constantIbLb0EEE8instanceEvE8instance) #27
  resume { ptr, i32 } %3

_ZN8QuantLib9SingletonINS_8SettingsESt17integral_constantIbLb0EEE8instanceEv.exit: ; preds = %entry, %init.check.i, %invoke.cont.i
  call void @llvm.lifetime.start.p0(i64 8, ptr nonnull %ref.tmp.i) #27
  call void @_ZN8QuantLib4DateC1Ev(ptr noundef nonnull align 8 dereferenceable(8) %ref.tmp.i)
  %4 = load i64, ptr @_ZZN8QuantLib9SingletonINS_8SettingsESt17integral_constantIbLb0EEE8instanceEvE8instance, align 8, !tbaa !37
  %5 = load i64, ptr %ref.tmp.i, align 8, !tbaa !130
  %cmp.i.i = icmp eq i64 %4, %5
  call void @llvm.lifetime.end.p0(i64 8, ptr nonnull %ref.tmp.i) #27
  br i1 %cmp.i.i, label %if.then.i, label %_ZNK8QuantLib8Settings9DateProxycvNS_4DateEEv.exit

if.then.i:                                        ; preds = %_ZN8QuantLib9SingletonINS_8SettingsESt17integral_constantIbLb0EEE8instanceEv.exit
  %call3.i = call i64 @_ZN8QuantLib4Date10todaysDateEv()
  br label %_ZNK8QuantLib8Settings9DateProxycvNS_4DateEEv.exit

_ZNK8QuantLib8Settings9DateProxycvNS_4DateEEv.exit: ; preds = %_ZN8QuantLib9SingletonINS_8SettingsESt17integral_constantIbLb0EEE8instanceEv.exit, %if.then.i
  %retval.sroa.0.0.i = phi i64 [ %call3.i, %if.then.i ], [ %4, %_ZN8QuantLib9SingletonINS_8SettingsESt17integral_constantIbLb0EEE8instanceEv.exit ]
  %6 = load i64, ptr %evaluationDate_, align 8, !tbaa !130
  %cmp.i.not = icmp eq i64 %6, %retval.sroa.0.0.i
  br i1 %cmp.i.not, label %if.end, label %if.then

if.then:                                          ; preds = %_ZNK8QuantLib8Settings9DateProxycvNS_4DateEEv.exit
  call void @_ZN8QuantLib15AssetSwapHelper15initializeDatesEv(ptr noundef nonnull align 8 dereferenceable(344) %this)
  br label %if.end

if.end:                                           ; preds = %if.then, %_ZNK8QuantLib8Settings9DateProxycvNS_4DateEEv.exit
  %add.ptr.i = getelementptr inbounds i8, ptr %this, i64 56
  call void @_ZN8QuantLib10Observable15notifyObserversEv(ptr noundef nonnull align 8 dereferenceable(56) %add.ptr.i)
  ret void
}